target datalayout = "e-m:e-p270:32:32-p271:32:32-p272:64:64-i64:64-i128:128-f80:128-n8:16:32:64-S128"
target triple = "x86_64-pc-linux-gnu"

%"class.llvm::SmallVectorBase.4" = type { ptr, i32, i32 }
%"class.(anonymous namespace)::CounterExpressionsMinimizer" = type { %"class.llvm::ArrayRef.8", %"class.llvm::SmallVector.10", %"class.std::vector" }
%"class.llvm::ArrayRef.8" = type { ptr, i64 }
%"class.llvm::SmallVector.10" = type { %"class.llvm::SmallVectorImpl.11", %"struct.llvm::SmallVectorStorage.14" }
%"class.llvm::SmallVectorImpl.11" = type { %"class.llvm::SmallVectorTemplateBase.12" }
%"class.llvm::SmallVectorTemplateBase.12" = type { %"class.llvm::SmallVectorTemplateCommon.13" }
%"class.llvm::SmallVectorTemplateCommon.13" = type { %"class.llvm::SmallVectorBase.4" }
%"struct.llvm::SmallVectorStorage.14" = type { [320 x i8] }
%"class.std::vector" = type { %"struct.std::_Vector_base" }
%"struct.std::_Vector_base" = type { %"struct.std::_Vector_base<unsigned int, std::allocator<unsigned int>>::_Vector_impl" }
%"struct.std::_Vector_base<unsigned int, std::allocator<unsigned int>>::_Vector_impl" = type { %"struct.std::_Vector_base<unsigned int, std::allocator<unsigned int>>::_Vector_impl_data" }
%"struct.std::_Vector_base<unsigned int, std::allocator<unsigned int>>::_Vector_impl_data" = type { ptr, ptr, ptr }
%"struct.llvm::coverage::Counter" = type { i32, i32 }
%"struct.llvm::coverage::CounterExpression" = type { i32, %"struct.llvm::coverage::Counter", %"struct.llvm::coverage::Counter" }

; Function Attrs: mustprogress nounwind uwtable
define linkonce_odr hidden noundef nonnull align 4 dereferenceable(20) ptr @_ZNK4llvm8ArrayRefINS_8coverage17CounterExpressionEEixEm(ptr noundef nonnull align 8 dereferenceable(16) %0, i64 noundef %1) #0 comdat align 2 {
  %3 = alloca ptr, align 8
  %4 = alloca i64, align 8
  store ptr %0, ptr %3, align 8
  store i64 %1, ptr %4, align 8
  %5 = load ptr, ptr %3, align 8
  %6 = getelementptr inbounds nuw %"class.llvm::ArrayRef.8", ptr %5, i32 0, i32 0
  %7 = load ptr, ptr %6, align 8
  %8 = load i64, ptr %4, align 8
  %9 = getelementptr inbounds %"struct.llvm::coverage::CounterExpression", ptr %7, i64 %8
  ret ptr %9
}

; Function Attrs: mustprogress nounwind uwtable
define linkonce_odr hidden noundef nonnull align 4 dereferenceable(4) ptr @_ZNSt6vectorIjSaIjEEixEm(ptr noundef nonnull align 8 dereferenceable(24) %0, i64 noundef %1) #0 comdat align 2 {
  %3 = alloca ptr, align 8
  %4 = alloca i64, align 8
  store ptr %0, ptr %3, align 8
  store i64 %1, ptr %4, align 8
  %5 = load ptr, ptr %3, align 8
  %6 = getelementptr inbounds nuw %"struct.std::_Vector_base", ptr %5, i32 0, i32 0
  %7 = getelementptr inbounds nuw %"struct.std::_Vector_base<unsigned int, std::allocator<unsigned int>>::_Vector_impl_data", ptr %6, i32 0, i32 0
  %8 = load ptr, ptr %7, align 8
  %9 = load i64, ptr %4, align 8
  %10 = getelementptr inbounds i32, ptr %8, i64 %9
  ret ptr %10
}

; Function Attrs: mustprogress nounwind uwtable
define linkonce_odr hidden noundef i32 @_ZNK4llvm8coverage7Counter15getExpressionIDEv(ptr noundef nonnull align 4 dereferenceable(8) %0) #0 comdat align 2 {
  %2 = alloca ptr, align 8
  store ptr %0, ptr %2, align 8
  %3 = load ptr, ptr %2, align 8
  %4 = getelementptr inbounds nuw %"struct.llvm::coverage::Counter", ptr %3, i32 0, i32 1
  %5 = load i32, ptr %4, align 4
  ret i32 %5
}

; Function Attrs: mustprogress nounwind uwtable
define linkonce_odr hidden noundef zeroext i1 @_ZNK4llvm8coverage7Counter12isExpressionEv(ptr noundef nonnull align 4 dereferenceable(8) %0) #0 comdat align 2 {
  %2 = alloca ptr, align 8
  store ptr %0, ptr %2, align 8
  %3 = load ptr, ptr %2, align 8
  %4 = getelementptr inbounds nuw %"struct.llvm::coverage::Counter", ptr %3, i32 0, i32 0
  %5 = load i32, ptr %4, align 4
  %6 = icmp eq i32 %5, 2
  ret i1 %6
}

; Function Attrs: mustprogress nounwind uwtable
define internal void @_ZN12_GLOBAL__N_127CounterExpressionsMinimizer10gatherUsedEN4llvm8coverage7CounterE(ptr noundef nonnull align 8 dereferenceable(376) %0, i64 %1) #0 align 2 {
  %3 = alloca %"struct.llvm::coverage::Counter", align 4
  %4 = alloca ptr, align 8
  %5 = alloca ptr, align 8
  %6 = alloca %"struct.llvm::coverage::Counter", align 4
  %7 = alloca %"struct.llvm::coverage::Counter", align 4
  store i64 %1, ptr %3, align 4
  store ptr %0, ptr %4, align 8
  %8 = load ptr, ptr %4, align 8
  %9 = call noundef zeroext i1 @_ZNK4llvm8coverage7Counter12isExpressionEv(ptr noundef nonnull align 4 dereferenceable(8) %3)
  br i1 %9, label %10, label %17

10:                                               ; preds = %2
  %11 = getelementptr inbounds nuw %"class.(anonymous namespace)::CounterExpressionsMinimizer", ptr %8, i32 0, i32 2
  %12 = call noundef i32 @_ZNK4llvm8coverage7Counter15getExpressionIDEv(ptr noundef nonnull align 4 dereferenceable(8) %3)
  %13 = zext i32 %12 to i64
  %14 = call noundef nonnull align 4 dereferenceable(4) ptr @_ZNSt6vectorIjSaIjEEixEm(ptr noundef nonnull align 8 dereferenceable(24) %11, i64 noundef %13) #10
  %15 = load i32, ptr %14, align 4
  %16 = icmp ne i32 %15, 0
  br i1 %16, label %18, label %17

17:                                               ; preds = %10, %2
  br label %38

18:                                               ; preds = %10
  %19 = getelementptr inbounds nuw %"class.(anonymous namespace)::CounterExpressionsMinimizer", ptr %8, i32 0, i32 1
  %20 = call noundef i64 @_ZNK4llvm15SmallVectorBaseIjE4sizeEv(ptr noundef nonnull align 8 dereferenceable(16) %19)
  %21 = trunc i64 %20 to i32
  %22 = getelementptr inbounds nuw %"class.(anonymous namespace)::CounterExpressionsMinimizer", ptr %8, i32 0, i32 2
  %23 = call noundef i32 @_ZNK4llvm8coverage7Counter15getExpressionIDEv(ptr noundef nonnull align 4 dereferenceable(8) %3)
  %24 = zext i32 %23 to i64
  %25 = call noundef nonnull align 4 dereferenceable(4) ptr @_ZNSt6vectorIjSaIjEEixEm(ptr noundef nonnull align 8 dereferenceable(24) %22, i64 noundef %24) #10
  store i32 %21, ptr %25, align 4
  %26 = getelementptr inbounds nuw %"class.(anonymous namespace)::CounterExpressionsMinimizer", ptr %8, i32 0, i32 0
  %27 = call noundef i32 @_ZNK4llvm8coverage7Counter15getExpressionIDEv(ptr noundef nonnull align 4 dereferenceable(8) %3)
  %28 = zext i32 %27 to i64
  %29 = call noundef nonnull align 4 dereferenceable(20) ptr @_ZNK4llvm8ArrayRefINS_8coverage17CounterExpressionEEixEm(ptr noundef nonnull align 8 dereferenceable(16) %26, i64 noundef %28)
  store ptr %29, ptr %5, align 8
  %30 = getelementptr inbounds nuw %"class.(anonymous namespace)::CounterExpressionsMinimizer", ptr %8, i32 0, i32 1
  %31 = load ptr, ptr %5, align 8
  call void @_ZN4llvm23SmallVectorTemplateBaseINS_8coverage17CounterExpressionELb1EE9push_backERKS2_(ptr noundef nonnull align 8 dereferenceable(16) %30, ptr noundef nonnull align 4 dereferenceable(20) %31)
  %32 = load ptr, ptr %5, align 8
  %33 = getelementptr inbounds nuw %"struct.llvm::coverage::CounterExpression", ptr %32, i32 0, i32 1
  call void @llvm.memcpy.p0.p0.i64(ptr align 4 %6, ptr align 4 %33, i64 8, i1 false)
  %34 = load i64, ptr %6, align 4
  call void @_ZN12_GLOBAL__N_127CounterExpressionsMinimizer10gatherUsedEN4llvm8coverage7CounterE(ptr noundef nonnull align 8 dereferenceable(376) %8, i64 %34)
  %35 = load ptr, ptr %5, align 8
  %36 = getelementptr inbounds nuw %"struct.llvm::coverage::CounterExpression", ptr %35, i32 0, i32 2
  call void @llvm.memcpy.p0.p0.i64(ptr align 4 %7, ptr align 4 %36, i64 8, i1 false)
  %37 = load i64, ptr %7, align 4
  call void @_ZN12_GLOBAL__N_127CounterExpressionsMinimizer10gatherUsedEN4llvm8coverage7CounterE(ptr noundef nonnull align 8 dereferenceable(376) %8, i64 %37)
  br label %38

38:                                               ; preds = %18, %17
  ret void
}