; Function Attrs: mustprogress nounwind uwtable
define internal fastcc void @_ZN12_GLOBAL__N_127CounterExpressionsMinimizer10gatherUsedEN4llvm8coverage7CounterE(ptr noundef nonnull align 8 dereferenceable(376) %0, i64 %1) unnamed_addr #2 align 2 {
  %3 = and i64 %1, 4294967295
  %4 = icmp eq i64 %3, 2
  br i1 %4, label %.lr.ph, label %tailrecurse._crit_edge

.lr.ph:                                           ; preds = %2
  %5 = getelementptr inbounds nuw i8, ptr %0, i64 352
  %6 = getelementptr inbounds nuw i8, ptr %0, i64 16
  br label %7

7:                                                ; preds = %.lr.ph, %tailrecurse
  %.tr78 = phi i64 [ %1, %.lr.ph ], [ %.sroa.0.0.copyload, %tailrecurse ]
  %.sroa.2.0.extract.shift = lshr i64 %.tr78, 32
  %8 = load ptr, ptr %5, align 8
  %9 = getelementptr inbounds i32, ptr %8, i64 %.sroa.2.0.extract.shift
  %10 = load i32, ptr %9, align 4
  %.not = icmp eq i32 %10, 0
  br i1 %.not, label %tailrecurse._crit_edge, label %tailrecurse

tailrecurse:                                      ; preds = %7
  %11 = tail call noundef i64 @_ZNK4llvm15SmallVectorBaseIjE4sizeEv(ptr noundef nonnull align 8 dereferenceable(16) %6) #16
  %12 = trunc i64 %11 to i32
  %13 = load ptr, ptr %5, align 8
  %14 = getelementptr inbounds i32, ptr %13, i64 %.sroa.2.0.extract.shift
  store i32 %12, ptr %14, align 4
  %15 = load ptr, ptr %0, align 8
  %16 = getelementptr inbounds %"struct.llvm::coverage::CounterExpression", ptr %15, i64 %.sroa.2.0.extract.shift
  tail call void @_ZN4llvm23SmallVectorTemplateBaseINS_8coverage17CounterExpressionELb1EE9push_backERKS2_(ptr noundef nonnull align 8 dereferenceable(16) %6, ptr noundef nonnull align 4 dereferenceable(20) %16)
  %17 = getelementptr inbounds nuw i8, ptr %16, i64 4
  %.sroa.01.0.copyload = load i64, ptr %17, align 4
  tail call fastcc void @_ZN12_GLOBAL__N_127CounterExpressionsMinimizer10gatherUsedEN4llvm8coverage7CounterE(ptr noundef nonnull align 8 dereferenceable(376) %0, i64 %.sroa.01.0.copyload)
  %18 = getelementptr inbounds nuw i8, ptr %16, i64 12
  %.sroa.0.0.copyload = load i64, ptr %18, align 4
  %19 = and i64 %.sroa.0.0.copyload, 4294967295
  %20 = icmp eq i64 %19, 2
  br i1 %20, label %7, label %tailrecurse._crit_edge

tailrecurse._crit_edge:                           ; preds = %7, %tailrecurse, %2
  ret void
}